target datalayout = "e-m:e-p270:32:32-p271:32:32-p272:64:64-i64:64-i128:128-f80:128-n8:16:32:64-S128"
target triple = "x86_64-pc-linux-gnu"

%struct.FormData_pg_index = type { i32, i32, i16, i16, i8, i8, i8, i8, i8, i8, i8, i8, i8, i8, i8, %struct.int2vector }
%struct.int2vector = type { i32, i32, i32, i32, i32, i32, [0 x i16] }
%struct.HeapTupleData = type { i32, %struct.ItemPointerData, i32, ptr }
%struct.ItemPointerData = type { %struct.BlockIdData, i16 }
%struct.BlockIdData = type { i16, i16 }
%struct.HeapTupleHeaderData = type { %union.anon.13, %struct.ItemPointerData, i16, i16, i8, [0 x i8] }
%union.anon.13 = type { %struct.HeapTupleFields }
%struct.HeapTupleFields = type { i32, i32, %union.anon.14 }
%union.anon.14 = type { i32 }

@.str.1 = private unnamed_addr constant [8 x i8] c"index.c\00", align 1
@.str.20 = private unnamed_addr constant [33 x i8] c"cache lookup failed for index %u\00", align 1
@__func__.index_set_state_flags = private unnamed_addr constant [22 x i8] c"index_set_state_flags\00", align 1

; Function Attrs: inlinehint nounwind uwtable
define internal ptr @GETSTRUCT(ptr noundef %0) #4 {
  %2 = alloca ptr, align 8
  store ptr %0, ptr %2, align 8
  %3 = load ptr, ptr %2, align 8
  %4 = getelementptr inbounds nuw %struct.HeapTupleData, ptr %3, i32 0, i32 3
  %5 = load ptr, ptr %4, align 8
  %6 = load ptr, ptr %2, align 8
  %7 = getelementptr inbounds nuw %struct.HeapTupleData, ptr %6, i32 0, i32 3
  %8 = load ptr, ptr %7, align 8
  %9 = getelementptr inbounds nuw %struct.HeapTupleHeaderData, ptr %8, i32 0, i32 4
  %10 = load i8, ptr %9, align 2
  %11 = zext i8 %10 to i32
  %12 = sext i32 %11 to i64
  %13 = getelementptr inbounds i8, ptr %5, i64 %12
  ret ptr %13
}

; Function Attrs: inlinehint nounwind uwtable
define internal i64 @ObjectIdGetDatum(i32 noundef %0) #4 {
  %2 = alloca i32, align 4
  store i32 %0, ptr %2, align 4
  %3 = load i32, ptr %2, align 4
  %4 = zext i32 %3 to i64
  ret i64 %4
}

; Function Attrs: nounwind uwtable
define dso_local void @index_set_state_flags(i32 noundef %0, i32 noundef %1) #0 {
  %3 = alloca i32, align 4
  %4 = alloca i32, align 4
  %5 = alloca ptr, align 8
  %6 = alloca ptr, align 8
  %7 = alloca ptr, align 8
  store i32 %0, ptr %3, align 4
  store i32 %1, ptr %4, align 4
  call void @llvm.lifetime.start.p0(i64 8, ptr %5) #8
  call void @llvm.lifetime.start.p0(i64 8, ptr %6) #8
  call void @llvm.lifetime.start.p0(i64 8, ptr %7) #8
  %8 = call ptr @table_open(i32 noundef 2610, i32 noundef 3)
  store ptr %8, ptr %5, align 8
  %9 = load i32, ptr %3, align 4
  %10 = call i64 @ObjectIdGetDatum(i32 noundef %9)
  %11 = call ptr @SearchSysCacheCopy(i32 noundef 34, i64 noundef %10, i64 noundef 0, i64 noundef 0, i64 noundef 0)
  store ptr %11, ptr %6, align 8
  %12 = load ptr, ptr %6, align 8
  %13 = icmp ne ptr %12, null
  br i1 %13, label %26, label %14

14:                                               ; preds = %2
  br label %15

15:                                               ; preds = %14
  br i1 true, label %16, label %18

16:                                               ; preds = %15
  %17 = call zeroext i1 @errstart_cold(i32 noundef 21, ptr noundef null) #9
  br i1 %17, label %20, label %23

18:                                               ; preds = %15
  %19 = call zeroext i1 @errstart(i32 noundef 21, ptr noundef null)
  br i1 %19, label %20, label %23

20:                                               ; preds = %18, %16
  %21 = load i32, ptr %3, align 4
  %22 = call i32 (ptr, ...) @errmsg_internal(ptr noundef @.str.20, i32 noundef %21)
  call void @errfinish(ptr noundef @.str.1, i32 noundef 3488, ptr noundef @__func__.index_set_state_flags)
  br label %23

23:                                               ; preds = %20, %18, %16
  unreachable

24:                                               ; No predecessors!
  br label %25

25:                                               ; preds = %24
  br label %26

26:                                               ; preds = %25, %2
  %27 = load ptr, ptr %6, align 8
  %28 = call ptr @GETSTRUCT(ptr noundef %27)
  store ptr %28, ptr %7, align 8
  %29 = load i32, ptr %4, align 4
  switch i32 %29, label %48 [
    i32 0, label %30
    i32 1, label %33
    i32 2, label %36
    i32 3, label %43
  ]

30:                                               ; preds = %26
  %31 = load ptr, ptr %7, align 8
  %32 = getelementptr inbounds nuw %struct.FormData_pg_index, ptr %31, i32 0, i32 12
  store i8 1, ptr %32, align 4
  br label %48

33:                                               ; preds = %26
  %34 = load ptr, ptr %7, align 8
  %35 = getelementptr inbounds nuw %struct.FormData_pg_index, ptr %34, i32 0, i32 10
  store i8 1, ptr %35, align 2
  br label %48

36:                                               ; preds = %26
  %37 = load ptr, ptr %7, align 8
  %38 = getelementptr inbounds nuw %struct.FormData_pg_index, ptr %37, i32 0, i32 10
  store i8 0, ptr %38, align 2
  %39 = load ptr, ptr %7, align 8
  %40 = getelementptr inbounds nuw %struct.FormData_pg_index, ptr %39, i32 0, i32 9
  store i8 0, ptr %40, align 1
  %41 = load ptr, ptr %7, align 8
  %42 = getelementptr inbounds nuw %struct.FormData_pg_index, ptr %41, i32 0, i32 14
  store i8 0, ptr %42, align 2
  br label %48

43:                                               ; preds = %26
  %44 = load ptr, ptr %7, align 8
  %45 = getelementptr inbounds nuw %struct.FormData_pg_index, ptr %44, i32 0, i32 12
  store i8 0, ptr %45, align 4
  %46 = load ptr, ptr %7, align 8
  %47 = getelementptr inbounds nuw %struct.FormData_pg_index, ptr %46, i32 0, i32 13
  store i8 0, ptr %47, align 1
  br label %48

48:                                               ; preds = %26, %43, %36, %33, %30
  %49 = load ptr, ptr %5, align 8
  %50 = load ptr, ptr %6, align 8
  %51 = getelementptr inbounds nuw %struct.HeapTupleData, ptr %50, i32 0, i32 1
  %52 = load ptr, ptr %6, align 8
  call void @CatalogTupleUpdate(ptr noundef %49, ptr noundef %51, ptr noundef %52)
  %53 = load ptr, ptr %5, align 8
  call void @table_close(ptr noundef %53, i32 noundef 3)
  call void @llvm.lifetime.end.p0(i64 8, ptr %7) #8
  call void @llvm.lifetime.end.p0(i64 8, ptr %6) #8
  call void @llvm.lifetime.end.p0(i64 8, ptr %5) #8
  ret void
}