; Function Attrs: nounwind uwtable
define dso_local void @index_set_state_flags(i32 noundef %0, i32 noundef %1) local_unnamed_addr #0 {
  %3 = tail call ptr @table_open(i32 noundef 2610, i32 noundef 3) #11
  %4 = zext i32 %0 to i64
  %5 = tail call ptr @SearchSysCacheCopy(i32 noundef 34, i64 noundef %4, i64 noundef 0, i64 noundef 0, i64 noundef 0) #11
  %.not = icmp eq ptr %5, null
  br i1 %.not, label %6, label %9

6:                                                ; preds = %2
  %7 = tail call zeroext i1 @errstart_cold(i32 noundef 21, ptr noundef null) #12
  tail call void @llvm.assume(i1 %7)
  %8 = tail call i32 (ptr, ...) @errmsg_internal(ptr noundef nonnull @.str.20, i32 noundef %0) #11
  tail call void @errfinish(ptr noundef nonnull @.str.1, i32 noundef 3488, ptr noundef nonnull @__func__.index_set_state_flags) #11
  unreachable

9:                                                ; preds = %2
  %10 = getelementptr i8, ptr %5, i64 16
  %.val = load ptr, ptr %10, align 8
  %11 = getelementptr inbounds nuw i8, ptr %.val, i64 22
  %12 = load i8, ptr %11, align 2
  %13 = zext i8 %12 to i64
  %14 = getelementptr inbounds nuw i8, ptr %.val, i64 %13
  switch i32 %1, label %26 [
    i32 0, label %15
    i32 1, label %17
    i32 2, label %19
    i32 3, label %23
  ]

15:                                               ; preds = %9
  %16 = getelementptr inbounds nuw i8, ptr %14, i64 20
  store i8 1, ptr %16, align 4
  br label %26

17:                                               ; preds = %9
  %18 = getelementptr inbounds nuw i8, ptr %14, i64 18
  store i8 1, ptr %18, align 2
  br label %26

19:                                               ; preds = %9
  %20 = getelementptr inbounds nuw i8, ptr %14, i64 18
  store i8 0, ptr %20, align 2
  %21 = getelementptr inbounds nuw i8, ptr %14, i64 17
  store i8 0, ptr %21, align 1
  %22 = getelementptr inbounds nuw i8, ptr %14, i64 22
  store i8 0, ptr %22, align 2
  br label %26

23:                                               ; preds = %9
  %24 = getelementptr inbounds nuw i8, ptr %14, i64 20
  store i8 0, ptr %24, align 4
  %25 = getelementptr inbounds nuw i8, ptr %14, i64 21
  store i8 0, ptr %25, align 1
  br label %26

26:                                               ; preds = %23, %19, %17, %15, %9
  %27 = getelementptr inbounds nuw i8, ptr %5, i64 4
  tail call void @CatalogTupleUpdate(ptr noundef %3, ptr noundef nonnull %27, ptr noundef nonnull %5) #11
  tail call void @table_close(ptr noundef %3, i32 noundef 3) #11
  ret void
}